; ModuleID = '38/1127.c'
source_filename = "38/1127.c"
target datalayout = "e-m:e-p270:32:32-p271:32:32-p272:64:64-i64:64-f80:128-n8:16:32:64-S128"
target triple = "x86_64-pc-linux-gnu"

@.str = private unnamed_addr constant [3 x i8] c"%d\00", align 1
@.str.1 = private unnamed_addr constant [4 x i8] c"%lf\00", align 1
@.str.2 = private unnamed_addr constant [6 x i8] c"%.5f\0A\00", align 1

; Function Attrs: noinline nounwind uwtable
define dso_local i32 @main() #0 {
  %1 = alloca i32, align 4
  %2 = alloca i32, align 4
  %3 = alloca i32, align 4
  %4 = alloca i32, align 4
  %5 = alloca i32, align 4
  %6 = alloca double*, align 8
  %7 = alloca double, align 8
  %8 = alloca double, align 8
  %9 = alloca double, align 8
  %10 = alloca double, align 8
  %11 = alloca double*, align 8
  store i32 0, i32* %1, align 4
  %12 = call i32 (i8*, ...) @__isoc99_scanf(i8* getelementptr inbounds ([3 x i8], [3 x i8]* @.str, i64 0, i64 0), i32* %2)
  %13 = load i32, i32* %2, align 4
  %14 = sext i32 %13 to i64
  %15 = mul i64 8, %14
  %16 = call noalias i8* @malloc(i64 %15) #3
  %17 = bitcast i8* %16 to double*
  store double* %17, double** %6, align 8
  store i32 0, i32* %3, align 4
  br label %18

18:                                               ; preds = %95, %0
  %19 = load i32, i32* %3, align 4
  %20 = load i32, i32* %2, align 4
  %21 = icmp slt i32 %19, %20
  br i1 %21, label %22, label %98

22:                                               ; preds = %18
  store double 0.000000e+00, double* %9, align 8
  %23 = call i32 (i8*, ...) @__isoc99_scanf(i8* getelementptr inbounds ([3 x i8], [3 x i8]* @.str, i64 0, i64 0), i32* %5)
  %24 = load i32, i32* %5, align 4
  %25 = sext i32 %24 to i64
  %26 = mul i64 8, %25
  %27 = call noalias i8* @malloc(i64 %26) #3
  %28 = bitcast i8* %27 to double*
  store double* %28, double** %11, align 8
  store i32 0, i32* %4, align 4
  br label %29

29:                                               ; preds = %46, %22
  %30 = load i32, i32* %4, align 4
  %31 = load i32, i32* %5, align 4
  %32 = icmp slt i32 %30, %31
  br i1 %32, label %33, label %49

33:                                               ; preds = %29
  %34 = load double*, double** %11, align 8
  %35 = load i32, i32* %4, align 4
  %36 = sext i32 %35 to i64
  %37 = getelementptr inbounds double, double* %34, i64 %36
  %38 = call i32 (i8*, ...) @__isoc99_scanf(i8* getelementptr inbounds ([4 x i8], [4 x i8]* @.str.1, i64 0, i64 0), double* %37)
  %39 = load double*, double** %11, align 8
  %40 = load i32, i32* %4, align 4
  %41 = sext i32 %40 to i64
  %42 = getelementptr inbounds double, double* %39, i64 %41
  %43 = load double, double* %42, align 8
  %44 = load double, double* %9, align 8
  %45 = fadd double %44, %43
  store double %45, double* %9, align 8
  br label %46

46:                                               ; preds = %33
  %47 = load i32, i32* %4, align 4
  %48 = add nsw i32 %47, 1
  store i32 %48, i32* %4, align 4
  br label %29

49:                                               ; preds = %29
  %50 = load double, double* %9, align 8
  %51 = load i32, i32* %5, align 4
  %52 = sitofp i32 %51 to double
  %53 = fdiv double %50, %52
  store double %53, double* %8, align 8
  store double 0.000000e+00, double* %10, align 8
  store i32 0, i32* %4, align 4
  br label %54

54:                                               ; preds = %76, %49
  %55 = load i32, i32* %4, align 4
  %56 = load i32, i32* %5, align 4
  %57 = icmp slt i32 %55, %56
  br i1 %57, label %58, label %79

58:                                               ; preds = %54
  %59 = load double*, double** %11, align 8
  %60 = load i32, i32* %4, align 4
  %61 = sext i32 %60 to i64
  %62 = getelementptr inbounds double, double* %59, i64 %61
  %63 = load double, double* %62, align 8
  %64 = load double, double* %8, align 8
  %65 = fsub double %63, %64
  %66 = load double*, double** %11, align 8
  %67 = load i32, i32* %4, align 4
  %68 = sext i32 %67 to i64
  %69 = getelementptr inbounds double, double* %66, i64 %68
  %70 = load double, double* %69, align 8
  %71 = load double, double* %8, align 8
  %72 = fsub double %70, %71
  %73 = fmul double %65, %72
  %74 = load double, double* %10, align 8
  %75 = fadd double %74, %73
  store double %75, double* %10, align 8
  br label %76

76:                                               ; preds = %58
  %77 = load i32, i32* %4, align 4
  %78 = add nsw i32 %77, 1
  store i32 %78, i32* %4, align 4
  br label %54

79:                                               ; preds = %54
  %80 = load double, double* %10, align 8
  %81 = load i32, i32* %5, align 4
  %82 = sitofp i32 %81 to double
  %83 = fdiv double %80, %82
  %84 = call double @sqrt(double %83) #3
  %85 = load double*, double** %11, align 8
  %86 = load i32, i32* %3, align 4
  %87 = sext i32 %86 to i64
  %88 = getelementptr inbounds double, double* %85, i64 %87
  store double %84, double* %88, align 8
  %89 = load double*, double** %11, align 8
  %90 = load i32, i32* %3, align 4
  %91 = sext i32 %90 to i64
  %92 = getelementptr inbounds double, double* %89, i64 %91
  %93 = load double, double* %92, align 8
  %94 = call i32 (i8*, ...) @printf(i8* getelementptr inbounds ([6 x i8], [6 x i8]* @.str.2, i64 0, i64 0), double %93)
  br label %95

95:                                               ; preds = %79
  %96 = load i32, i32* %3, align 4
  %97 = add nsw i32 %96, 1
  store i32 %97, i32* %3, align 4
  br label %18

98:                                               ; preds = %18
  ret i32 0
}

declare dso_local i32 @__isoc99_scanf(i8*, ...) #1

; Function Attrs: nounwind
declare dso_local noalias i8* @malloc(i64) #2

; Function Attrs: nounwind
declare dso_local double @sqrt(double) #2

declare dso_local i32 @printf(i8*, ...) #1


!llvm.module.flags = !{!0}
!llvm.ident = !{!1}

!0 = !{i32 1, !"wchar_size", i32 4}
!1 = !{!"clang version 10.0.0-4ubuntu1 "}
